; Function Attrs: nounwind uwtable
define internal range(i32 0, 2) i32 @ack(ptr noundef readonly captures(none) %0, ptr noundef %1) #0 {
  %3 = load i32, ptr %1, align 8
  %4 = and i32 %3, 256
  %.not = icmp eq i32 %4, 0
  br i1 %.not, label %5, label %8

5:                                                ; preds = %2
  %6 = getelementptr inbounds nuw i8, ptr %1, i64 4
  %7 = tail call ptr @oid_to_hex(ptr noundef nonnull %6) #6
  tail call void (ptr, ...) @die(ptr noundef nonnull @.str.2, ptr noundef %7) #7
  unreachable

8:                                                ; preds = %2
  %9 = lshr i32 %3, 6
  %.lobit = and i32 %9, 1
  %10 = getelementptr inbounds nuw i8, ptr %0, i64 40
  %11 = load ptr, ptr %10, align 8, !tbaa !13
  tail call fastcc void @mark_common(ptr noundef %11, ptr noundef nonnull %1)
  ret i32 %.lobit
}